target datalayout = "e-m:e-p270:32:32-p271:32:32-p272:64:64-i64:64-i128:128-f80:128-n8:16:32:64-S128"
target triple = "x86_64-pc-linux-gnu"

%struct.AVFilterContext = type { ptr, ptr, ptr, ptr, ptr, i32, ptr, ptr, i32, ptr, ptr, i32, i32, ptr, ptr, ptr, ptr, i32, ptr, i32, i32 }
%struct.DynamicAudioNormalizerContext = type { ptr, %struct.FFBufQueue, i32, i32, i32, i32, i32, i32, double, ptr, double, double, double, double, double, ptr, ptr, ptr, ptr, i32, i32, i32, ptr, %struct.AVChannelLayout, i64, ptr, ptr, ptr, ptr, ptr, ptr, ptr, [6 x double] }
%struct.FFBufQueue = type { [302 x ptr], i16, i16 }
%struct.AVChannelLayout = type { i32, i32, %union.anon.1, ptr }
%union.anon.1 = type { i64 }
%struct.AVRational = type { i32, i32 }
%struct.cqueue = type { ptr, i32, i32, i32 }
%struct.ThreadData = type { ptr, ptr, i32 }
%struct.AVFrame = type { [8 x ptr], [8 x i32], ptr, i32, i32, i32, i32, i32, %struct.AVRational, i64, i64, %struct.AVRational, i32, ptr, i32, i32, [8 x ptr], ptr, i32, ptr, i32, i32, i32, i32, i32, i32, i32, i64, ptr, i32, ptr, ptr, i64, i64, i64, i64, ptr, %struct.AVChannelLayout, i64 }

; Function Attrs: inlinehint nounwind uwtable
define internal double @fade(double noundef %0, double noundef %1, i32 noundef %2, i32 noundef %3) #3 {
  %5 = alloca double, align 8
  %6 = alloca double, align 8
  %7 = alloca i32, align 4
  %8 = alloca i32, align 4
  %9 = alloca double, align 8
  %10 = alloca double, align 8
  %11 = alloca double, align 8
  store double %0, ptr %5, align 8, !tbaa !75
  store double %1, ptr %6, align 8, !tbaa !75
  store i32 %2, ptr %7, align 4, !tbaa !35
  store i32 %3, ptr %8, align 4, !tbaa !35
  call void @llvm.lifetime.start.p0(i64 8, ptr %9) #11
  %12 = load i32, ptr %8, align 4, !tbaa !35
  %13 = sitofp i32 %12 to double
  %14 = fdiv nsz double 1.000000e+00, %13
  store double %14, ptr %9, align 8, !tbaa !75
  call void @llvm.lifetime.start.p0(i64 8, ptr %10) #11
  %15 = load double, ptr %9, align 8, !tbaa !75
  %16 = load i32, ptr %7, align 4, !tbaa !35
  %17 = sitofp i32 %16 to double
  %18 = fadd nsz double %17, 1.000000e+00
  %19 = fneg nsz double %15
  %20 = call nsz double @llvm.fmuladd.f64(double %19, double %18, double 1.000000e+00)
  store double %20, ptr %10, align 8, !tbaa !75
  call void @llvm.lifetime.start.p0(i64 8, ptr %11) #11
  %21 = load double, ptr %10, align 8, !tbaa !75
  %22 = fsub nsz double 1.000000e+00, %21
  store double %22, ptr %11, align 8, !tbaa !75
  %23 = load double, ptr %10, align 8, !tbaa !75
  %24 = load double, ptr %5, align 8, !tbaa !75
  %25 = load double, ptr %11, align 8, !tbaa !75
  %26 = load double, ptr %6, align 8, !tbaa !75
  %27 = fmul nsz double %25, %26
  %28 = call nsz double @llvm.fmuladd.f64(double %23, double %24, double %27)
  call void @llvm.lifetime.end.p0(i64 8, ptr %11) #11
  call void @llvm.lifetime.end.p0(i64 8, ptr %10) #11
  call void @llvm.lifetime.end.p0(i64 8, ptr %9) #11
  ret double %28
}

; Function Attrs: nounwind uwtable
define internal i32 @cqueue_dequeue(ptr noundef %0, ptr noundef %1) #1 {
  %3 = alloca ptr, align 8
  %4 = alloca ptr, align 8
  store ptr %0, ptr %3, align 8, !tbaa !38
  store ptr %1, ptr %4, align 8, !tbaa !111
  %5 = load ptr, ptr %3, align 8, !tbaa !38
  %6 = getelementptr inbounds nuw %struct.cqueue, ptr %5, i32 0, i32 0
  %7 = load ptr, ptr %6, align 8, !tbaa !82
  %8 = getelementptr inbounds double, ptr %7, i64 0
  %9 = load double, ptr %8, align 8, !tbaa !75
  %10 = load ptr, ptr %4, align 8, !tbaa !111
  store double %9, ptr %10, align 8, !tbaa !75
  %11 = load ptr, ptr %3, align 8, !tbaa !38
  %12 = getelementptr inbounds nuw %struct.cqueue, ptr %11, i32 0, i32 0
  %13 = load ptr, ptr %12, align 8, !tbaa !82
  %14 = getelementptr inbounds double, ptr %13, i64 0
  %15 = load ptr, ptr %3, align 8, !tbaa !38
  %16 = getelementptr inbounds nuw %struct.cqueue, ptr %15, i32 0, i32 0
  %17 = load ptr, ptr %16, align 8, !tbaa !82
  %18 = getelementptr inbounds double, ptr %17, i64 1
  %19 = load ptr, ptr %3, align 8, !tbaa !38
  %20 = getelementptr inbounds nuw %struct.cqueue, ptr %19, i32 0, i32 3
  %21 = load i32, ptr %20, align 8, !tbaa !81
  %22 = sub nsw i32 %21, 1
  %23 = sext i32 %22 to i64
  %24 = mul i64 %23, 8
  call void @llvm.memmove.p0.p0.i64(ptr align 8 %14, ptr align 8 %18, i64 %24, i1 false)
  %25 = load ptr, ptr %3, align 8, !tbaa !38
  %26 = getelementptr inbounds nuw %struct.cqueue, ptr %25, i32 0, i32 3
  %27 = load i32, ptr %26, align 8, !tbaa !81
  %28 = add nsw i32 %27, -1
  store i32 %28, ptr %26, align 8, !tbaa !81
  ret i32 0
}

; Function Attrs: inlinehint nounwind uwtable
define internal i32 @bypass_channel(ptr noundef %0, ptr noundef %1, i32 noundef %2) #3 {
  %4 = alloca ptr, align 8
  %5 = alloca ptr, align 8
  %6 = alloca i32, align 4
  %7 = alloca i32, align 4
  store ptr %0, ptr %4, align 8, !tbaa !22
  store ptr %1, ptr %5, align 8, !tbaa !64
  store i32 %2, ptr %6, align 4, !tbaa !35
  call void @llvm.lifetime.start.p0(i64 4, ptr %7) #11
  %8 = load ptr, ptr %5, align 8, !tbaa !64
  %9 = getelementptr inbounds nuw %struct.AVFrame, ptr %8, i32 0, i32 37
  %10 = load i32, ptr %6, align 4, !tbaa !35
  %11 = call i32 @av_channel_layout_channel_from_index(ptr noundef %9, i32 noundef %10)
  store i32 %11, ptr %7, align 4, !tbaa !35
  %12 = load ptr, ptr %4, align 8, !tbaa !22
  %13 = getelementptr inbounds nuw %struct.DynamicAudioNormalizerContext, ptr %12, i32 0, i32 23
  %14 = load i32, ptr %7, align 4, !tbaa !35
  %15 = call i32 @av_channel_layout_index_from_channel(ptr noundef %13, i32 noundef %14)
  %16 = icmp slt i32 %15, 0
  %17 = zext i1 %16 to i32
  call void @llvm.lifetime.end.p0(i64 4, ptr %7) #11
  ret i32 %17
}

; Function Attrs: nounwind uwtable
define internal void @amplify_channel(ptr noundef %0, ptr noundef %1, ptr noundef %2, i32 noundef %3, i32 noundef %4) #1 {
  %6 = alloca ptr, align 8
  %7 = alloca ptr, align 8
  %8 = alloca ptr, align 8
  %9 = alloca i32, align 4
  %10 = alloca i32, align 4
  %11 = alloca i32, align 4
  %12 = alloca ptr, align 8
  %13 = alloca ptr, align 8
  %14 = alloca double, align 8
  %15 = alloca i32, align 4
  %16 = alloca double, align 8
  store ptr %0, ptr %6, align 8, !tbaa !22
  store ptr %1, ptr %7, align 8, !tbaa !64
  store ptr %2, ptr %8, align 8, !tbaa !64
  store i32 %3, ptr %9, align 4, !tbaa !35
  store i32 %4, ptr %10, align 4, !tbaa !35
  call void @llvm.lifetime.start.p0(i64 4, ptr %11) #11
  %17 = load ptr, ptr %6, align 8, !tbaa !22
  %18 = load ptr, ptr %8, align 8, !tbaa !64
  %19 = load i32, ptr %10, align 4, !tbaa !35
  %20 = call i32 @bypass_channel(ptr noundef %17, ptr noundef %18, i32 noundef %19)
  store i32 %20, ptr %11, align 4, !tbaa !35
  call void @llvm.lifetime.start.p0(i64 8, ptr %12) #11
  %21 = load ptr, ptr %7, align 8, !tbaa !64
  %22 = getelementptr inbounds nuw %struct.AVFrame, ptr %21, i32 0, i32 2
  %23 = load ptr, ptr %22, align 8, !tbaa !124
  %24 = load i32, ptr %10, align 4, !tbaa !35
  %25 = sext i32 %24 to i64
  %26 = getelementptr inbounds ptr, ptr %23, i64 %25
  %27 = load ptr, ptr %26, align 8, !tbaa !46
  store ptr %27, ptr %12, align 8, !tbaa !111
  call void @llvm.lifetime.start.p0(i64 8, ptr %13) #11
  %28 = load ptr, ptr %8, align 8, !tbaa !64
  %29 = getelementptr inbounds nuw %struct.AVFrame, ptr %28, i32 0, i32 2
  %30 = load ptr, ptr %29, align 8, !tbaa !124
  %31 = load i32, ptr %10, align 4, !tbaa !35
  %32 = sext i32 %31 to i64
  %33 = getelementptr inbounds ptr, ptr %30, i64 %32
  %34 = load ptr, ptr %33, align 8, !tbaa !46
  store ptr %34, ptr %13, align 8, !tbaa !111
  call void @llvm.lifetime.start.p0(i64 8, ptr %14) #11
  %35 = load ptr, ptr %6, align 8, !tbaa !22
  %36 = getelementptr inbounds nuw %struct.DynamicAudioNormalizerContext, ptr %35, i32 0, i32 27
  %37 = load ptr, ptr %36, align 8, !tbaa !40
  %38 = load i32, ptr %10, align 4, !tbaa !35
  %39 = sext i32 %38 to i64
  %40 = getelementptr inbounds ptr, ptr %37, i64 %39
  %41 = load ptr, ptr %40, align 8, !tbaa !38
  %42 = call i32 @cqueue_dequeue(ptr noundef %41, ptr noundef %14)
  call void @llvm.lifetime.start.p0(i64 4, ptr %15) #11
  store i32 0, ptr %15, align 4, !tbaa !35
  br label %43

43:                                               ; preds = %84, %5
  %44 = load i32, ptr %15, align 4, !tbaa !35
  %45 = load ptr, ptr %8, align 8, !tbaa !64
  %46 = getelementptr inbounds nuw %struct.AVFrame, ptr %45, i32 0, i32 5
  %47 = load i32, ptr %46, align 8, !tbaa !92
  %48 = icmp slt i32 %44, %47
  br i1 %48, label %49, label %56

49:                                               ; preds = %43
  %50 = load i32, ptr %9, align 4, !tbaa !35
  %51 = icmp ne i32 %50, 0
  br i1 %51, label %52, label %56

52:                                               ; preds = %49
  %53 = load i32, ptr %11, align 4, !tbaa !35
  %54 = icmp ne i32 %53, 0
  %55 = xor i1 %54, true
  br label %56

56:                                               ; preds = %52, %49, %43
  %57 = phi i1 [ false, %49 ], [ false, %43 ], [ %55, %52 ]
  br i1 %57, label %59, label %58

58:                                               ; preds = %56
  call void @llvm.lifetime.end.p0(i64 4, ptr %15) #11
  br label %87

59:                                               ; preds = %56
  call void @llvm.lifetime.start.p0(i64 8, ptr %16) #11
  %60 = load ptr, ptr %6, align 8, !tbaa !22
  %61 = getelementptr inbounds nuw %struct.DynamicAudioNormalizerContext, ptr %60, i32 0, i32 15
  %62 = load ptr, ptr %61, align 8, !tbaa !71
  %63 = load i32, ptr %10, align 4, !tbaa !35
  %64 = sext i32 %63 to i64
  %65 = getelementptr inbounds double, ptr %62, i64 %64
  %66 = load double, ptr %65, align 8, !tbaa !75
  %67 = load double, ptr %14, align 8, !tbaa !75
  %68 = load i32, ptr %15, align 4, !tbaa !35
  %69 = load ptr, ptr %8, align 8, !tbaa !64
  %70 = getelementptr inbounds nuw %struct.AVFrame, ptr %69, i32 0, i32 5
  %71 = load i32, ptr %70, align 8, !tbaa !92
  %72 = call nsz double @fade(double noundef %66, double noundef %67, i32 noundef %68, i32 noundef %71)
  store double %72, ptr %16, align 8, !tbaa !75
  %73 = load ptr, ptr %12, align 8, !tbaa !111
  %74 = load i32, ptr %15, align 4, !tbaa !35
  %75 = sext i32 %74 to i64
  %76 = getelementptr inbounds double, ptr %73, i64 %75
  %77 = load double, ptr %76, align 8, !tbaa !75
  %78 = load double, ptr %16, align 8, !tbaa !75
  %79 = fmul nsz double %77, %78
  %80 = load ptr, ptr %13, align 8, !tbaa !111
  %81 = load i32, ptr %15, align 4, !tbaa !35
  %82 = sext i32 %81 to i64
  %83 = getelementptr inbounds double, ptr %80, i64 %82
  store double %79, ptr %83, align 8, !tbaa !75
  call void @llvm.lifetime.end.p0(i64 8, ptr %16) #11
  br label %84

84:                                               ; preds = %59
  %85 = load i32, ptr %15, align 4, !tbaa !35
  %86 = add nsw i32 %85, 1
  store i32 %86, ptr %15, align 4, !tbaa !35
  br label %43, !llvm.loop !132

87:                                               ; preds = %58
  %88 = load double, ptr %14, align 8, !tbaa !75
  %89 = load ptr, ptr %6, align 8, !tbaa !22
  %90 = getelementptr inbounds nuw %struct.DynamicAudioNormalizerContext, ptr %89, i32 0, i32 15
  %91 = load ptr, ptr %90, align 8, !tbaa !71
  %92 = load i32, ptr %10, align 4, !tbaa !35
  %93 = sext i32 %92 to i64
  %94 = getelementptr inbounds double, ptr %91, i64 %93
  store double %88, ptr %94, align 8, !tbaa !75
  call void @llvm.lifetime.end.p0(i64 8, ptr %14) #11
  call void @llvm.lifetime.end.p0(i64 8, ptr %13) #11
  call void @llvm.lifetime.end.p0(i64 8, ptr %12) #11
  call void @llvm.lifetime.end.p0(i64 4, ptr %11) #11
  ret void
}

; Function Attrs: nounwind uwtable
define internal i32 @amplify_channels(ptr noundef %0, ptr noundef %1, i32 noundef %2, i32 noundef %3) #1 {
  %5 = alloca ptr, align 8
  %6 = alloca ptr, align 8
  %7 = alloca i32, align 4
  %8 = alloca i32, align 4
  %9 = alloca ptr, align 8
  %10 = alloca ptr, align 8
  %11 = alloca ptr, align 8
  %12 = alloca ptr, align 8
  %13 = alloca i32, align 4
  %14 = alloca i32, align 4
  %15 = alloca i32, align 4
  %16 = alloca i32, align 4
  %17 = alloca i32, align 4
  store ptr %0, ptr %5, align 8, !tbaa !4
  store ptr %1, ptr %6, align 8, !tbaa !112
  store i32 %2, ptr %7, align 4, !tbaa !35
  store i32 %3, ptr %8, align 4, !tbaa !35
  call void @llvm.lifetime.start.p0(i64 8, ptr %9) #11
  %18 = load ptr, ptr %5, align 8, !tbaa !4
  %19 = getelementptr inbounds nuw %struct.AVFilterContext, ptr %18, i32 0, i32 9
  %20 = load ptr, ptr %19, align 8, !tbaa !9
  store ptr %20, ptr %9, align 8, !tbaa !22
  call void @llvm.lifetime.start.p0(i64 8, ptr %10) #11
  %21 = load ptr, ptr %6, align 8, !tbaa !112
  store ptr %21, ptr %10, align 8, !tbaa !113
  call void @llvm.lifetime.start.p0(i64 8, ptr %11) #11
  %22 = load ptr, ptr %10, align 8, !tbaa !113
  %23 = getelementptr inbounds nuw %struct.ThreadData, ptr %22, i32 0, i32 1
  %24 = load ptr, ptr %23, align 8, !tbaa !99
  store ptr %24, ptr %11, align 8, !tbaa !64
  call void @llvm.lifetime.start.p0(i64 8, ptr %12) #11
  %25 = load ptr, ptr %10, align 8, !tbaa !113
  %26 = getelementptr inbounds nuw %struct.ThreadData, ptr %25, i32 0, i32 0
  %27 = load ptr, ptr %26, align 8, !tbaa !97
  store ptr %27, ptr %12, align 8, !tbaa !64
  call void @llvm.lifetime.start.p0(i64 4, ptr %13) #11
  %28 = load ptr, ptr %10, align 8, !tbaa !113
  %29 = getelementptr inbounds nuw %struct.ThreadData, ptr %28, i32 0, i32 2
  %30 = load i32, ptr %29, align 8, !tbaa !100
  store i32 %30, ptr %13, align 4, !tbaa !35
  call void @llvm.lifetime.start.p0(i64 4, ptr %14) #11
  %31 = load ptr, ptr %9, align 8, !tbaa !22
  %32 = getelementptr inbounds nuw %struct.DynamicAudioNormalizerContext, ptr %31, i32 0, i32 19
  %33 = load i32, ptr %32, align 8, !tbaa !36
  store i32 %33, ptr %14, align 4, !tbaa !35
  call void @llvm.lifetime.start.p0(i64 4, ptr %15) #11
  %34 = load i32, ptr %14, align 4, !tbaa !35
  %35 = load i32, ptr %7, align 4, !tbaa !35
  %36 = mul nsw i32 %34, %35
  %37 = load i32, ptr %8, align 4, !tbaa !35
  %38 = sdiv i32 %36, %37
  store i32 %38, ptr %15, align 4, !tbaa !35
  call void @llvm.lifetime.start.p0(i64 4, ptr %16) #11
  %39 = load i32, ptr %14, align 4, !tbaa !35
  %40 = load i32, ptr %7, align 4, !tbaa !35
  %41 = add nsw i32 %40, 1
  %42 = mul nsw i32 %39, %41
  %43 = load i32, ptr %8, align 4, !tbaa !35
  %44 = sdiv i32 %42, %43
  store i32 %44, ptr %16, align 4, !tbaa !35
  call void @llvm.lifetime.start.p0(i64 4, ptr %17) #11
  %45 = load i32, ptr %15, align 4, !tbaa !35
  store i32 %45, ptr %17, align 4, !tbaa !35
  br label %46

46:                                               ; preds = %57, %4
  %47 = load i32, ptr %17, align 4, !tbaa !35
  %48 = load i32, ptr %16, align 4, !tbaa !35
  %49 = icmp slt i32 %47, %48
  br i1 %49, label %51, label %50

50:                                               ; preds = %46
  call void @llvm.lifetime.end.p0(i64 4, ptr %17) #11
  br label %60

51:                                               ; preds = %46
  %52 = load ptr, ptr %9, align 8, !tbaa !22
  %53 = load ptr, ptr %12, align 8, !tbaa !64
  %54 = load ptr, ptr %11, align 8, !tbaa !64
  %55 = load i32, ptr %13, align 4, !tbaa !35
  %56 = load i32, ptr %17, align 4, !tbaa !35
  call void @amplify_channel(ptr noundef %52, ptr noundef %53, ptr noundef %54, i32 noundef %55, i32 noundef %56)
  br label %57

57:                                               ; preds = %51
  %58 = load i32, ptr %17, align 4, !tbaa !35
  %59 = add nsw i32 %58, 1
  store i32 %59, ptr %17, align 4, !tbaa !35
  br label %46, !llvm.loop !115

60:                                               ; preds = %50
  call void @llvm.lifetime.end.p0(i64 4, ptr %16) #11
  call void @llvm.lifetime.end.p0(i64 4, ptr %15) #11
  call void @llvm.lifetime.end.p0(i64 4, ptr %14) #11
  call void @llvm.lifetime.end.p0(i64 4, ptr %13) #11
  call void @llvm.lifetime.end.p0(i64 8, ptr %12) #11
  call void @llvm.lifetime.end.p0(i64 8, ptr %11) #11
  call void @llvm.lifetime.end.p0(i64 8, ptr %10) #11
  call void @llvm.lifetime.end.p0(i64 8, ptr %9) #11
  ret i32 0
}