; Function Attrs: nounwind uwtable
define internal noundef i32 @amplify_channels(ptr noundef readonly captures(none) %0, ptr noundef readonly captures(none) %1, i32 noundef %2, i32 noundef %3) #1 {
  %5 = getelementptr inbounds nuw i8, ptr %0, i64 72
  %6 = load ptr, ptr %5, align 8, !tbaa !4
  %7 = getelementptr inbounds nuw i8, ptr %6, i64 2544
  %8 = load i32, ptr %7, align 8, !tbaa !31
  %9 = mul nsw i32 %8, %2
  %10 = sdiv i32 %9, %3
  %11 = add nsw i32 %2, 1
  %12 = mul nsw i32 %8, %11
  %13 = sdiv i32 %12, %3
  %14 = icmp slt i32 %10, %13
  br i1 %14, label %.lr.ph, label %._crit_edge

.lr.ph:                                           ; preds = %4
  %15 = getelementptr inbounds nuw i8, ptr %1, i64 16
  %16 = load i32, ptr %15, align 8, !tbaa !104
  %17 = load ptr, ptr %1, align 8, !tbaa !101
  %18 = getelementptr inbounds nuw i8, ptr %1, i64 8
  %19 = load ptr, ptr %18, align 8, !tbaa !103
  %20 = getelementptr inbounds nuw i8, ptr %19, i64 384
  %21 = getelementptr inbounds nuw i8, ptr %6, i64 2568
  %22 = getelementptr inbounds nuw i8, ptr %17, i64 96
  %23 = getelementptr inbounds nuw i8, ptr %19, i64 96
  %24 = getelementptr inbounds nuw i8, ptr %6, i64 2616
  %25 = getelementptr inbounds nuw i8, ptr %19, i64 112
  %.fr21 = freeze i32 %16
  %.not = icmp eq i32 %.fr21, 0
  %26 = getelementptr inbounds nuw i8, ptr %6, i64 2512
  %27 = sext i32 %10 to i64
  br i1 %.not, label %amplify_channel.exit.us, label %.lr.ph.split

amplify_channel.exit.us:                          ; preds = %.lr.ph, %amplify_channel.exit.us
  %indvars.iv24 = phi i64 [ %indvars.iv.next25, %amplify_channel.exit.us ], [ %27, %.lr.ph ]
  %28 = trunc nsw i64 %indvars.iv24 to i32
  %29 = tail call i32 @av_channel_layout_channel_from_index(ptr noundef nonnull %20, i32 noundef %28) #15
  %30 = tail call i32 @av_channel_layout_index_from_channel(ptr noundef nonnull %21, i32 noundef %29) #15
  %31 = load ptr, ptr %24, align 8, !tbaa !42
  %32 = getelementptr inbounds ptr, ptr %31, i64 %indvars.iv24
  %33 = load ptr, ptr %32, align 8, !tbaa !40
  %34 = load ptr, ptr %33, align 8, !tbaa !54
  %35 = load double, ptr %34, align 8, !tbaa !49
  %36 = getelementptr inbounds nuw i8, ptr %34, i64 8
  %37 = getelementptr inbounds nuw i8, ptr %33, i64 16
  %38 = load i32, ptr %37, align 8, !tbaa !52
  %39 = add nsw i32 %38, -1
  %40 = sext i32 %39 to i64
  %41 = shl nsw i64 %40, 3
  tail call void @llvm.memmove.p0.p0.i64(ptr nonnull align 8 %34, ptr nonnull align 8 %36, i64 %41, i1 false)
  %42 = load i32, ptr %37, align 8, !tbaa !52
  %43 = add nsw i32 %42, -1
  store i32 %43, ptr %37, align 8, !tbaa !52
  %44 = load ptr, ptr %26, align 8, !tbaa !96
  %45 = getelementptr inbounds double, ptr %44, i64 %indvars.iv24
  store double %35, ptr %45, align 8, !tbaa !49
  %indvars.iv.next25 = add nsw i64 %indvars.iv24, 1
  %lftr.wideiv27 = trunc i64 %indvars.iv.next25 to i32
  %exitcond28.not = icmp eq i32 %13, %lftr.wideiv27
  br i1 %exitcond28.not, label %._crit_edge, label %amplify_channel.exit.us, !llvm.loop !128

._crit_edge:                                      ; preds = %amplify_channel.exit, %amplify_channel.exit.us, %4
  ret i32 0

.lr.ph.split:                                     ; preds = %.lr.ph, %amplify_channel.exit
  %indvars.iv = phi i64 [ %indvars.iv.next, %amplify_channel.exit ], [ %27, %.lr.ph ]
  %46 = trunc nsw i64 %indvars.iv to i32
  %47 = tail call i32 @av_channel_layout_channel_from_index(ptr noundef nonnull %20, i32 noundef %46) #15
  %48 = tail call i32 @av_channel_layout_index_from_channel(ptr noundef nonnull %21, i32 noundef %47) #15
  %49 = load ptr, ptr %22, align 8, !tbaa !80
  %50 = getelementptr inbounds ptr, ptr %49, i64 %indvars.iv
  %51 = load ptr, ptr %50, align 8, !tbaa !88
  %52 = load ptr, ptr %23, align 8, !tbaa !80
  %53 = getelementptr inbounds ptr, ptr %52, i64 %indvars.iv
  %54 = load ptr, ptr %53, align 8, !tbaa !88
  %55 = load ptr, ptr %24, align 8, !tbaa !42
  %56 = getelementptr inbounds ptr, ptr %55, i64 %indvars.iv
  %57 = load ptr, ptr %56, align 8, !tbaa !40
  %58 = load ptr, ptr %57, align 8, !tbaa !54
  %59 = load double, ptr %58, align 8, !tbaa !49
  %60 = getelementptr inbounds nuw i8, ptr %58, i64 8
  %61 = getelementptr inbounds nuw i8, ptr %57, i64 16
  %62 = load i32, ptr %61, align 8, !tbaa !52
  %63 = add nsw i32 %62, -1
  %64 = sext i32 %63 to i64
  %65 = shl nsw i64 %64, 3
  tail call void @llvm.memmove.p0.p0.i64(ptr nonnull align 8 %58, ptr nonnull align 8 %60, i64 %65, i1 false)
  %66 = load i32, ptr %61, align 8, !tbaa !52
  %67 = add nsw i32 %66, -1
  store i32 %67, ptr %61, align 8, !tbaa !52
  %68 = load i32, ptr %25, align 8, !tbaa !85
  %.fr.i = freeze i32 %48
  %.not.i = icmp sgt i32 %.fr.i, -1
  %69 = icmp sgt i32 %68, 0
  %70 = and i1 %.not.i, %69
  %71 = load ptr, ptr %26, align 8, !tbaa !96
  br i1 %70, label %.lr.ph.split.preheader.i, label %amplify_channel.exit

.lr.ph.split.preheader.i:                         ; preds = %.lr.ph.split
  %72 = getelementptr inbounds double, ptr %71, i64 %indvars.iv
  %73 = uitofp nneg i32 %68 to double
  %74 = fdiv nsz double -1.000000e+00, %73
  %wide.trip.count.i = zext nneg i32 %68 to i64
  br label %.lr.ph.split.i

.lr.ph.split.i:                                   ; preds = %.lr.ph.split.i, %.lr.ph.split.preheader.i
  %indvars.iv.i = phi i64 [ 0, %.lr.ph.split.preheader.i ], [ %indvars.iv.next.i, %.lr.ph.split.i ]
  %75 = load double, ptr %72, align 8, !tbaa !49
  %indvars.iv.next.i = add nuw nsw i64 %indvars.iv.i, 1
  %76 = trunc nuw nsw i64 %indvars.iv.next.i to i32
  %77 = uitofp i32 %76 to double
  %78 = tail call nsz double @llvm.fmuladd.f64(double %74, double %77, double 1.000000e+00)
  %79 = fsub nsz double 1.000000e+00, %78
  %80 = fmul nsz double %59, %79
  %81 = tail call nsz double @llvm.fmuladd.f64(double %78, double %75, double %80)
  %82 = getelementptr inbounds nuw double, ptr %51, i64 %indvars.iv.i
  %83 = load double, ptr %82, align 8, !tbaa !49
  %84 = fmul nsz double %83, %81
  %85 = getelementptr inbounds nuw double, ptr %54, i64 %indvars.iv.i
  store double %84, ptr %85, align 8, !tbaa !49
  %exitcond.not.i = icmp eq i64 %indvars.iv.next.i, %wide.trip.count.i
  br i1 %exitcond.not.i, label %amplify_channel.exit, label %.lr.ph.split.i, !llvm.loop !129

amplify_channel.exit:                             ; preds = %.lr.ph.split.i, %.lr.ph.split
  %86 = getelementptr inbounds double, ptr %71, i64 %indvars.iv
  store double %59, ptr %86, align 8, !tbaa !49
  %indvars.iv.next = add nsw i64 %indvars.iv, 1
  %lftr.wideiv = trunc i64 %indvars.iv.next to i32
  %exitcond.not = icmp eq i32 %13, %lftr.wideiv
  br i1 %exitcond.not, label %._crit_edge, label %.lr.ph.split, !llvm.loop !128
}